(lp0
(dp1
Vdomain
p2
Vwww.groupon.com
p3
sVname
p4
Vakavpau_lottery
p5
sVvalue
p6
V1566118928~id=ac5353f31f7d9051261d2ec52ff32052
p7
sVpath
p8
V/
p9
sVhttpOnly
p10
I00
sVsecure
p11
I00
sa(dp12
Vdomain
p13
Vgroupon.com
p14
sVsecure
p15
I01
sVvalue
p16
VeyJ2ZXJzaW9uIjoxLCJkYXRhIjp7InV1aWQiOiJiMWIyODM5NC1hMzgxLTExZTktYTIzOS0wMjQyYWMxMjAwMDIiLCJtZXRob2RzIjp7InBhc3N3b3JkIjoxNTY2MTE4NjI1fX0sImtleSI6ODU2Nywic2lnbmF0dXJlIjoiTUVRQ0h3NlZZYmdZWHBPNEluNXJFTjlOVHRVaml3T01SWFZ3Nnd3MlBsUm4vZHdDSVFDeUFQSWdwc0pjMjllV2taT09TL0MxcFVENUZUenBWWTE2Z3lUejJpZGxSZz09In0%3D
p17
sVexpiry
p18
F1568797106.119613
sVpath
p19
g9
sVhttpOnly
p20
I01
sVname
p21
Vgingerbread
p22
sa(dp23
Vdomain
p24
Vgroupon.com
p25
sVsecure
p26
I01
sVvalue
p27
VC93D0F72C77DB82FAA52BAD767425C98~-1~YAAQJvh331BiyOBrAQAAhHXQQwL0AbeOccoOvMc0LilkZhtjPhldt5OjSKVxpfPd8TxwaQ0azbovn+xZttHg6YcRkNtqr9XfiJ6ZiR8Xr30hbMzmijHk6Iffi4Z3r77GE3SOjL1Fho5bksqm8Y8pJlY+JhbAuIOZKjgt9FkKnHbsfgwGdfPxW102LnoKCumZvU12hpJoOH2NnjI90uFFW4aqzz9Q2zbtOSV3Pk1Xid/jXbIaRotznVe2JBir2yPhiEqYA4H6k47CqHPhDtz/gBoIYk+5B4Bdwxobkgw=~-1~-1~-1
p28
sVexpiry
p29
I1596041847
sVpath
p30
g9
sVhttpOnly
p31
I00
sVname
p32
V_abck
p33
sa(dp34
Vdomain
p35
Vgroupon.com
p36
sVsecure
p37
I00
sVvalue
p38
VGA1.2.180939332.1564505849
p39
sVexpiry
p40
I1629190704
sVpath
p41
g9
sVhttpOnly
p42
I00
sVname
p43
V_ga
p44
sa(dp45
Vdomain
p46
Vgroupon.com
p47
sVsecure
p48
I00
sVvalue
p49
V890A4E6E5CCD233946A0A5B559B46F906854967905480000D412595D145CA813~plqUiiWPiDD7aFPqX2NPD+pQ8oKipFURX010pOstI2yf6IeH3Eh7/aZI0zLquTnLYEPlDNx6qj21M38MRoN69ke8qBP/GBFvE00+qG1Q/1ZxTq+cJyJ6E4M/yLzl2PVeKVm7n2mHDQMoLtbqGruBML6Z6DqHJCBl/ETX69xQEOTYeQll2oNXZ3lVYf6L4jdQozxq5TKlQ26rBzPT8yNojrDGwLfMtJeMM9oedKNRGZcpQ=
p50
sVexpiry
p51
F1566125892.42812
sVpath
p52
g9
sVhttpOnly
p53
I01
sVname
p54
Vak_bmsc
p55
sa(dp56
Vdomain
p57
Vgroupon.com
p58
sVsecure
p59
I00
sVvalue
p60
VGA1.2.1428734246.1566118693
p61
sVexpiry
p62
I1566205104
sVpath
p63
g9
sVhttpOnly
p64
I00
sVname
p65
V_gid
p66
sa(dp67
Vdomain
p68
Vgroupon.com
p69
sVsecure
p70
I00
sVvalue
p71
VA084F2CE6E4D5907EBE597EE90023D15~YAAQeZZUaAJivn9sAQAA343xowQ4I3D/gsqUGqLuvn4AMlPzBbhNHc/n15CMSDnNNcSnRwG1cohh5CLs26q4J/06hhSi6AAEfSaMKdVFome662FvqNRBLCef1gC5anp79/jC9awFV3zbSAAKYhOKmta19yfitM8lDnjEo7rZ8324YVbZ9waYW9NqZK/iGrlJ
p72
sVexpiry
p73
F1566133092.428234
sVpath
p74
g9
sVhttpOnly
p75
I01
sVname
p76
Vbm_sz
p77
sa(dp78
Vdomain
p79
Vgroupon.com
p80
sVsecure
p81
I00
sVvalue
p82
V99e0131a-3f07-484c-a013-1a3f07f84c6c
p83
sVexpiry
p84
F1566120508.077245
sVpath
p85
g9
sVhttpOnly
p86
I00
sVname
p87
Vs
p88
sa(dp89
Vdomain
p90
Vgroupon.com
p91
sVsecure
p92
I00
sVvalue
p93
V1
p94
sVexpiry
p95
I1566118753
sVpath
p96
g9
sVhttpOnly
p97
I00
sVname
p98
V_gat
p99
sa(dp100
Vdomain
p101
Vwww.groupon.com
p102
sVname
p103
Vakavpau_lottery
p104
sVvalue
p105
V1564510917~id=08ef676e71ba544fc6ac86176e2fc370
p106
sVpath
p107
g9
sVhttpOnly
p108
I00
sVsecure
p109
I01
sa(dp110
Vdomain
p111
Vgroupon.com
p112
sVsecure
p113
I01
sVvalue
p114
V133
p115
sVexpiry
p116
I1879865847
sVpath
p117
g9
sVhttpOnly
p118
I00
sVname
p119
Vbucket
p120
sa(dp121
Vdomain
p122
Vgroupon.com
p123
sVsecure
p124
I01
sVvalue
p125
V654b5236-94af-977b-3172-e4007cc1df3b
p126
sVexpiry
p127
I1879865847
sVpath
p128
g9
sVhttpOnly
p129
I00
sVname
p130
Vb
p131
sa.